; Function Attrs: mustprogress uwtable
define dso_local void @_ZN7testing8internal17GetCapturedStderrB5cxx11Ev(ptr dead_on_unwind noalias writable sret(%"class.std::__cxx11::basic_string") align 8 %0) local_unnamed_addr #3 personality ptr @__gxx_personality_v0 {
  %2 = load ptr, ptr @_ZN7testing8internalL17g_captured_stderrE, align 8, !tbaa !183, !noalias !190
  tail call void @_ZN7testing8internal14CapturedStream17GetCapturedStringB5cxx11Ev(ptr dead_on_unwind writable sret(%"class.std::__cxx11::basic_string") align 8 %0, ptr noundef nonnull align 8 dereferenceable(40) %2)
  %3 = load ptr, ptr @_ZN7testing8internalL17g_captured_stderrE, align 8, !tbaa !183, !noalias !190
  %4 = icmp eq ptr %3, null
  br i1 %4, label %_ZN7testing8internalL17GetCapturedStreamB5cxx11EPPNS0_14CapturedStreamE.exit, label %5

5:                                                ; preds = %1
  %6 = getelementptr inbounds nuw i8, ptr %3, i64 8
  %7 = load ptr, ptr %6, align 8, !tbaa !23
  %8 = tail call i32 @remove(ptr noundef %7) #57
  %9 = load ptr, ptr %6, align 8, !tbaa !23
  %10 = getelementptr inbounds nuw i8, ptr %3, i64 24
  %11 = icmp eq ptr %9, %10
  br i1 %11, label %_ZNKSt7__cxx1112basic_stringIcSt11char_traitsIcESaIcEE11_M_is_localEv.exit.thread.i.i.i.i, label %_ZNKSt7__cxx1112basic_stringIcSt11char_traitsIcESaIcEE11_M_is_localEv.exit.i.i.i.i

_ZNKSt7__cxx1112basic_stringIcSt11char_traitsIcESaIcEE11_M_is_localEv.exit.thread.i.i.i.i: ; preds = %5
  %12 = getelementptr inbounds nuw i8, ptr %3, i64 16
  %13 = load i64, ptr %12, align 8, !tbaa !26
  %14 = icmp ult i64 %13, 16
  tail call void @llvm.assume(i1 %14)
  br label %_ZN7testing8internal14CapturedStreamD2Ev.exit.i

_ZNKSt7__cxx1112basic_stringIcSt11char_traitsIcESaIcEE11_M_is_localEv.exit.i.i.i.i: ; preds = %5
  %15 = load i64, ptr %10, align 8, !tbaa !28
  %16 = add i64 %15, 1
  tail call void @_ZdlPvm(ptr noundef %9, i64 noundef %16) #58
  br label %_ZN7testing8internal14CapturedStreamD2Ev.exit.i

_ZN7testing8internal14CapturedStreamD2Ev.exit.i:  ; preds = %_ZNKSt7__cxx1112basic_stringIcSt11char_traitsIcESaIcEE11_M_is_localEv.exit.i.i.i.i, %_ZNKSt7__cxx1112basic_stringIcSt11char_traitsIcESaIcEE11_M_is_localEv.exit.thread.i.i.i.i
  tail call void @_ZdlPvm(ptr noundef nonnull %3, i64 noundef 40) #58
  br label %_ZN7testing8internalL17GetCapturedStreamB5cxx11EPPNS0_14CapturedStreamE.exit

_ZN7testing8internalL17GetCapturedStreamB5cxx11EPPNS0_14CapturedStreamE.exit: ; preds = %1, %_ZN7testing8internal14CapturedStreamD2Ev.exit.i
  store ptr null, ptr @_ZN7testing8internalL17g_captured_stderrE, align 8, !tbaa !183, !noalias !190
  ret void
}